target datalayout = "e-m:e-p270:32:32-p271:32:32-p272:64:64-i64:64-i128:128-f80:128-n8:16:32:64-S128"
target triple = "x86_64-pc-linux-gnu"

@.str = private unnamed_addr constant [30 x i8] c"../openssl/crypto/ui/ui_lib.c\00", align 1

; Function Attrs: nounwind uwtable
define i32 @UI_dup_error_string(ptr noundef %0, ptr noundef %1) #0 {
  %3 = alloca i32, align 4
  %4 = alloca ptr, align 8
  %5 = alloca ptr, align 8
  %6 = alloca ptr, align 8
  %7 = alloca i32, align 4
  store ptr %0, ptr %4, align 8, !tbaa !8
  store ptr %1, ptr %5, align 8, !tbaa !34
  call void @llvm.lifetime.start.p0(i64 8, ptr %6) #7
  store ptr null, ptr %6, align 8, !tbaa !34
  %8 = load ptr, ptr %5, align 8, !tbaa !34
  %9 = icmp ne ptr %8, null
  br i1 %9, label %10, label %17

10:                                               ; preds = %2
  %11 = load ptr, ptr %5, align 8, !tbaa !34
  %12 = call noalias ptr @CRYPTO_strdup(ptr noundef %11, ptr noundef @.str, i32 noundef 330)
  store ptr %12, ptr %6, align 8, !tbaa !34
  %13 = load ptr, ptr %6, align 8, !tbaa !34
  %14 = icmp eq ptr %13, null
  br i1 %14, label %15, label %16

15:                                               ; preds = %10
  store i32 -1, ptr %3, align 4
  store i32 1, ptr %7, align 4
  br label %21

16:                                               ; preds = %10
  br label %17

17:                                               ; preds = %16, %2
  %18 = load ptr, ptr %4, align 8, !tbaa !8
  %19 = load ptr, ptr %6, align 8, !tbaa !34
  %20 = call i32 @general_allocate_string(ptr noundef %18, ptr noundef %19, i32 noundef 1, i32 noundef 5, i32 noundef 0, ptr noundef null, i32 noundef 0, i32 noundef 0, ptr noundef null)
  store i32 %20, ptr %3, align 4
  store i32 1, ptr %7, align 4
  br label %21

21:                                               ; preds = %17, %15
  call void @llvm.lifetime.end.p0(i64 8, ptr %6) #7
  %22 = load i32, ptr %3, align 4
  ret i32 %22
}