; Function Attrs: nounwind uwtable
define range(i32 1, 0) i32 @UI_dup_error_string(ptr noundef captures(none) %0, ptr noundef %1) local_unnamed_addr #0 {
  %.not = icmp eq ptr %1, null
  br i1 %.not, label %6, label %3

3:                                                ; preds = %2
  %4 = tail call noalias ptr @CRYPTO_strdup(ptr noundef nonnull %1, ptr noundef nonnull @.str, i32 noundef 330) #8
  %5 = icmp eq ptr %4, null
  br i1 %5, label %8, label %6

6:                                                ; preds = %3, %2
  %.0 = phi ptr [ %4, %3 ], [ null, %2 ]
  %7 = tail call fastcc i32 @general_allocate_string(ptr noundef %0, ptr noundef %.0, i32 noundef 1, i32 noundef 5, i32 noundef 0, ptr noundef null, i32 noundef 0, i32 noundef 0, ptr noundef null)
  br label %8

8:                                                ; preds = %3, %6
  %.05 = phi i32 [ %7, %6 ], [ -1, %3 ]
  ret i32 %.05
}